target datalayout = "e-m:e-p270:32:32-p271:32:32-p272:64:64-i64:64-i128:128-f80:128-n8:16:32:64-S128"
target triple = "x86_64-unknown-linux-gnu"

%"class.proxygen::HeaderTable" = type { ptr, i32, i32, %"class.std::vector", i32, i32, i32, i8, %"class.folly::F14FastMap" }
%"class.std::vector" = type { %"struct.std::_Vector_base" }
%"struct.std::_Vector_base" = type { %"struct.std::_Vector_base<proxygen::HPACKHeader, std::allocator<proxygen::HPACKHeader>>::_Vector_impl" }
%"struct.std::_Vector_base<proxygen::HPACKHeader, std::allocator<proxygen::HPACKHeader>>::_Vector_impl" = type { %"struct.std::_Vector_base<proxygen::HPACKHeader, std::allocator<proxygen::HPACKHeader>>::_Vector_impl_data" }
%"struct.std::_Vector_base<proxygen::HPACKHeader, std::allocator<proxygen::HPACKHeader>>::_Vector_impl_data" = type { ptr, ptr, ptr }
%"class.folly::F14FastMap" = type { %"class.folly::f14::detail::F14VectorMapImpl" }
%"class.folly::f14::detail::F14VectorMapImpl" = type { %"class.folly::f14::detail::F14BasicMap" }
%"class.folly::f14::detail::F14BasicMap" = type { %"class.folly::f14::detail::F14Table" }
%"class.folly::f14::detail::F14Table" = type { %"class.folly::f14::detail::VectorContainerPolicy", ptr, %"struct.folly::f14::detail::SizeAndChunkShiftAndPackedBegin" }
%"class.folly::f14::detail::VectorContainerPolicy" = type { ptr }
%"struct.folly::f14::detail::SizeAndChunkShiftAndPackedBegin" = type { %"struct.folly::f14::detail::PackedSizeAndChunkShift" }
%"struct.folly::f14::detail::PackedSizeAndChunkShift" = type { i64 }

; Function Attrs: mustprogress nounwind uwtable
define linkonce_odr noundef i64 @_ZNKSt6vectorIN8proxygen11HPACKHeaderESaIS1_EE4sizeEv(ptr noundef nonnull align 8 dereferenceable(24) %this) #5 comdat align 2 {
entry:
  %this.addr = alloca ptr, align 8
  store ptr %this, ptr %this.addr, align 8
  %this1 = load ptr, ptr %this.addr, align 8
  %_M_impl = getelementptr inbounds %"struct.std::_Vector_base", ptr %this1, i32 0, i32 0
  %_M_finish = getelementptr inbounds %"struct.std::_Vector_base<proxygen::HPACKHeader, std::allocator<proxygen::HPACKHeader>>::_Vector_impl_data", ptr %_M_impl, i32 0, i32 1
  %0 = load ptr, ptr %_M_finish, align 8
  %_M_impl2 = getelementptr inbounds %"struct.std::_Vector_base", ptr %this1, i32 0, i32 0
  %_M_start = getelementptr inbounds %"struct.std::_Vector_base<proxygen::HPACKHeader, std::allocator<proxygen::HPACKHeader>>::_Vector_impl_data", ptr %_M_impl2, i32 0, i32 0
  %1 = load ptr, ptr %_M_start, align 8
  %sub.ptr.lhs.cast = ptrtoint ptr %0 to i64
  %sub.ptr.rhs.cast = ptrtoint ptr %1 to i64
  %sub.ptr.sub = sub i64 %sub.ptr.lhs.cast, %sub.ptr.rhs.cast
  %sub.ptr.div = sdiv exact i64 %sub.ptr.sub, 32
  ret i64 %sub.ptr.div
}

; Function Attrs: mustprogress nounwind uwtable
define noundef i32 @_ZN8proxygen11HeaderTable10toExternalEjjj(i32 noundef %head, i32 noundef %length, i32 noundef %internalIndex) #5 align 2 {
entry:
  %head.addr = alloca i32, align 4
  %length.addr = alloca i32, align 4
  %internalIndex.addr = alloca i32, align 4
  store i32 %head, ptr %head.addr, align 4
  store i32 %length, ptr %length.addr, align 4
  store i32 %internalIndex, ptr %internalIndex.addr, align 4
  %0 = load i32, ptr %head.addr, align 4
  %1 = load i32, ptr %length.addr, align 4
  %add = add i32 %0, %1
  %2 = load i32, ptr %internalIndex.addr, align 4
  %sub = sub i32 %add, %2
  %3 = load i32, ptr %length.addr, align 4
  %rem = urem i32 %sub, %3
  %add1 = add i32 %rem, 1
  ret i32 %add1
}

; Function Attrs: mustprogress nounwind uwtable
define linkonce_odr noundef i64 @_ZNK8proxygen11HeaderTable6lengthEv(ptr noundef nonnull align 8 dereferenceable(80) %this) #5 comdat align 2 {
entry:
  %this.addr = alloca ptr, align 8
  store ptr %this, ptr %this.addr, align 8
  %this1 = load ptr, ptr %this.addr, align 8
  %table_ = getelementptr inbounds %"class.proxygen::HeaderTable", ptr %this1, i32 0, i32 3
  %call = call noundef i64 @_ZNKSt6vectorIN8proxygen11HPACKHeaderESaIS1_EE4sizeEv(ptr noundef nonnull align 8 dereferenceable(24) %table_) #3
  ret i64 %call
}

; Function Attrs: mustprogress uwtable
define noundef i32 @_ZNK8proxygen11HeaderTable10toExternalEj(ptr noundef nonnull align 8 dereferenceable(80) %this, i32 noundef %internalIndex) #4 align 2 {
entry:
  %this.addr = alloca ptr, align 8
  %internalIndex.addr = alloca i32, align 4
  store ptr %this, ptr %this.addr, align 8
  store i32 %internalIndex, ptr %internalIndex.addr, align 4
  %this1 = load ptr, ptr %this.addr, align 8
  %head_ = getelementptr inbounds %"class.proxygen::HeaderTable", ptr %this1, i32 0, i32 5
  %0 = load i32, ptr %head_, align 4
  %call = call noundef i64 @_ZNK8proxygen11HeaderTable6lengthEv(ptr noundef nonnull align 8 dereferenceable(80) %this1)
  %conv = trunc i64 %call to i32
  %1 = load i32, ptr %internalIndex.addr, align 4
  %call2 = call noundef i32 @_ZN8proxygen11HeaderTable10toExternalEjjj(i32 noundef %0, i32 noundef %conv, i32 noundef %1)
  ret i32 %call2
}