; Function Attrs: mustprogress nofree norecurse nosync nounwind willreturn memory(argmem: read) uwtable
define noundef i32 @_ZNK8proxygen11HeaderTable10toExternalEj(ptr nocapture noundef nonnull readonly align 8 dereferenceable(80) %this, i32 noundef %internalIndex) local_unnamed_addr #7 align 2 {
entry:
  %head_ = getelementptr inbounds i8, ptr %this, i64 44
  %0 = load i32, ptr %head_, align 4
  %table_.i = getelementptr inbounds i8, ptr %this, i64 16
  %_M_finish.i.i = getelementptr inbounds i8, ptr %this, i64 24
  %1 = load ptr, ptr %_M_finish.i.i, align 8
  %2 = load ptr, ptr %table_.i, align 8
  %sub.ptr.lhs.cast.i.i = ptrtoint ptr %1 to i64
  %sub.ptr.rhs.cast.i.i = ptrtoint ptr %2 to i64
  %sub.ptr.sub.i.i = sub i64 %sub.ptr.lhs.cast.i.i, %sub.ptr.rhs.cast.i.i
  %sub.ptr.div.i.i = lshr exact i64 %sub.ptr.sub.i.i, 5
  %conv = trunc i64 %sub.ptr.div.i.i to i32
  %add.i = sub i32 %0, %internalIndex
  %sub.i = add i32 %add.i, %conv
  %rem.i = urem i32 %sub.i, %conv
  %add1.i = add nuw i32 %rem.i, 1
  ret i32 %add1.i
}